; Function Attrs: mustprogress ssp uwtable
define void @_ZN6open3d4core7HashMap4FindERKNS0_6TensorERS2_S5_(ptr noundef nonnull align 8 dereferenceable(152) %0, ptr noundef nonnull align 8 dereferenceable(160) %1, ptr noundef nonnull align 8 dereferenceable(160) %2, ptr noundef nonnull align 8 dereferenceable(160) %3) local_unnamed_addr #2 align 2 personality ptr @__gxx_personality_v0 {
  %5 = alloca %"class.open3d::core::SizeVector", align 8
  %6 = alloca %"class.open3d::core::SizeVector", align 8
  call void @llvm.lifetime.start.p0(i64 48, ptr nonnull %6) #30
  %7 = getelementptr inbounds nuw i8, ptr %1, i64 8
  call void @_ZN6open3d4core10SizeVectorC1ERKS1_(ptr noundef nonnull align 8 dereferenceable(48) %6, ptr noundef nonnull align 8 dereferenceable(48) %7)
  %8 = invoke noundef i64 @_ZNK6open3d4core10SizeVector9GetLengthEv(ptr noundef nonnull align 8 dereferenceable(48) %6)
          to label %9 unwind label %14

9:                                                ; preds = %4
  %10 = load ptr, ptr %6, align 8, !tbaa !13
  %11 = getelementptr inbounds nuw i8, ptr %6, i64 16
  %12 = icmp eq ptr %10, %11
  br i1 %12, label %_ZNK6open3d4core6Tensor9GetLengthEv.exit.i, label %13

13:                                               ; preds = %9
  call void @free(ptr noundef %10) #30
  br label %_ZNK6open3d4core6Tensor9GetLengthEv.exit.i

14:                                               ; preds = %4
  %15 = landingpad { ptr, i32 }
          cleanup
  %16 = load ptr, ptr %6, align 8, !tbaa !13
  %17 = getelementptr inbounds nuw i8, ptr %6, i64 16
  %18 = icmp eq ptr %16, %17
  br i1 %18, label %_ZN6open3d4core11SmallVectorIlLj4EED2Ev.exit2.i.i, label %19

19:                                               ; preds = %14
  call void @free(ptr noundef %16) #30
  br label %_ZN6open3d4core11SmallVectorIlLj4EED2Ev.exit2.i.i

common.resume:                                    ; preds = %_ZN6open3d4core11SmallVectorIlLj4EED2Ev.exit2.i, %_ZN6open3d4core11SmallVectorIlLj4EED2Ev.exit2.i.i
  %common.resume.op = phi { ptr, i32 } [ %15, %_ZN6open3d4core11SmallVectorIlLj4EED2Ev.exit2.i.i ], [ %29, %_ZN6open3d4core11SmallVectorIlLj4EED2Ev.exit2.i ]
  resume { ptr, i32 } %common.resume.op

_ZN6open3d4core11SmallVectorIlLj4EED2Ev.exit2.i.i: ; preds = %19, %14
  call void @llvm.lifetime.end.p0(i64 48, ptr nonnull %6) #30
  br label %common.resume

_ZNK6open3d4core6Tensor9GetLengthEv.exit.i:       ; preds = %13, %9
  call void @llvm.lifetime.end.p0(i64 48, ptr nonnull %6) #30
  %20 = icmp eq i64 %8, 0
  br i1 %20, label %21, label %_ZNK6open3d4core7HashMap14CheckKeyLengthERKNS0_6TensorE.exit

21:                                               ; preds = %_ZNK6open3d4core6Tensor9GetLengthEv.exit.i
  call void @_ZN6open3d7utility6Logger9LogError_IJEEEvPKciS4_S4_DpOT_(ptr noundef nonnull @.str.1, i32 noundef 359, ptr noundef nonnull @__PRETTY_FUNCTION__._ZNK6open3d4core7HashMap14CheckKeyLengthERKNS0_6TensorE, ptr noundef nonnull @.str.58) #33
  unreachable

_ZNK6open3d4core7HashMap14CheckKeyLengthERKNS0_6TensorE.exit: ; preds = %_ZNK6open3d4core6Tensor9GetLengthEv.exit.i
  call void @_ZNK6open3d4core7HashMap21CheckKeyCompatibilityERKNS0_6TensorE(ptr noundef nonnull align 8 dereferenceable(152) %0, ptr noundef nonnull align 8 dereferenceable(160) %1)
  call void @llvm.lifetime.start.p0(i64 48, ptr nonnull %5) #30
  call void @_ZN6open3d4core10SizeVectorC1ERKS1_(ptr noundef nonnull align 8 dereferenceable(48) %5, ptr noundef nonnull align 8 dereferenceable(48) %7)
  %22 = invoke noundef i64 @_ZNK6open3d4core10SizeVector9GetLengthEv(ptr noundef nonnull align 8 dereferenceable(48) %5)
          to label %23 unwind label %28

23:                                               ; preds = %_ZNK6open3d4core7HashMap14CheckKeyLengthERKNS0_6TensorE.exit
  %24 = load ptr, ptr %5, align 8, !tbaa !13
  %25 = getelementptr inbounds nuw i8, ptr %5, i64 16
  %26 = icmp eq ptr %24, %25
  br i1 %26, label %_ZNK6open3d4core6Tensor9GetLengthEv.exit, label %27

27:                                               ; preds = %23
  call void @free(ptr noundef %24) #30
  br label %_ZNK6open3d4core6Tensor9GetLengthEv.exit

28:                                               ; preds = %_ZNK6open3d4core7HashMap14CheckKeyLengthERKNS0_6TensorE.exit
  %29 = landingpad { ptr, i32 }
          cleanup
  %30 = load ptr, ptr %5, align 8, !tbaa !13
  %31 = getelementptr inbounds nuw i8, ptr %5, i64 16
  %32 = icmp eq ptr %30, %31
  br i1 %32, label %_ZN6open3d4core11SmallVectorIlLj4EED2Ev.exit2.i, label %33

33:                                               ; preds = %28
  call void @free(ptr noundef %30) #30
  br label %_ZN6open3d4core11SmallVectorIlLj4EED2Ev.exit2.i

_ZN6open3d4core11SmallVectorIlLj4EED2Ev.exit2.i:  ; preds = %33, %28
  call void @llvm.lifetime.end.p0(i64 48, ptr nonnull %5) #30
  br label %common.resume

_ZNK6open3d4core6Tensor9GetLengthEv.exit:         ; preds = %23, %27
  call void @llvm.lifetime.end.p0(i64 48, ptr nonnull %5) #30
  call void @_ZNK6open3d4core7HashMap20PrepareIndicesOutputERNS0_6TensorEl(ptr noundef nonnull align 8 dereferenceable(152) %0, ptr noundef nonnull align 8 dereferenceable(160) %2, i64 noundef %22)
  call void @_ZNK6open3d4core7HashMap18PrepareMasksOutputERNS0_6TensorEl(ptr noundef nonnull align 8 dereferenceable(152) %0, ptr noundef nonnull align 8 dereferenceable(160) %3, i64 noundef %22)
  %34 = getelementptr inbounds nuw i8, ptr %0, i64 8
  %35 = load ptr, ptr %34, align 8, !tbaa !32
  %36 = getelementptr inbounds nuw i8, ptr %1, i64 104
  %37 = load ptr, ptr %36, align 8, !tbaa !53
  %38 = getelementptr inbounds nuw i8, ptr %2, i64 104
  %39 = load ptr, ptr %38, align 8, !tbaa !53
  %40 = call noundef ptr @_ZNK6open3d4core6Tensor10GetDataPtrIbEEPKT_v(ptr noundef nonnull align 8 dereferenceable(160) %3)
  %41 = load ptr, ptr %35, align 8, !tbaa !4
  %42 = getelementptr inbounds nuw i8, ptr %41, i64 32
  %43 = load ptr, ptr %42, align 8
  call void %43(ptr noundef nonnull align 8 dereferenceable(72) %35, ptr noundef %37, ptr noundef %39, ptr noundef %40, i64 noundef %22)
  ret void
}